target datalayout = "e-m:e-p270:32:32-p271:32:32-p272:64:64-i64:64-i128:128-f80:128-n8:16:32:64-S128"
target triple = "x86_64-pc-linux-gnu"

; Function Attrs: nounwind uwtable
define ptr @cli_memstr(ptr noundef %0, i64 noundef %1, ptr noundef %2, i64 noundef %3) #0 {
  %5 = alloca ptr, align 8
  %6 = alloca ptr, align 8
  %7 = alloca i64, align 8
  %8 = alloca ptr, align 8
  %9 = alloca i64, align 8
  %10 = alloca i64, align 8
  %11 = alloca i64, align 8
  %12 = alloca i64, align 8
  store ptr %0, ptr %6, align 8
  store i64 %1, ptr %7, align 8
  store ptr %2, ptr %8, align 8
  store i64 %3, ptr %9, align 8
  %13 = load i64, ptr %7, align 8
  %14 = icmp ne i64 %13, 0
  br i1 %14, label %15, label %22

15:                                               ; preds = %4
  %16 = load i64, ptr %9, align 8
  %17 = icmp ne i64 %16, 0
  br i1 %17, label %18, label %22

18:                                               ; preds = %15
  %19 = load i64, ptr %7, align 8
  %20 = load i64, ptr %9, align 8
  %21 = icmp ult i64 %19, %20
  br i1 %21, label %22, label %23

22:                                               ; preds = %18, %15, %4
  store ptr null, ptr %5, align 8
  br label %107

23:                                               ; preds = %18
  %24 = load ptr, ptr %8, align 8
  %25 = load ptr, ptr %6, align 8
  %26 = icmp eq ptr %24, %25
  br i1 %26, label %27, label %29

27:                                               ; preds = %23
  %28 = load ptr, ptr %6, align 8
  store ptr %28, ptr %5, align 8
  br label %107

29:                                               ; preds = %23
  %30 = load i64, ptr %9, align 8
  %31 = icmp eq i64 %30, 1
  br i1 %31, label %32, label %40

32:                                               ; preds = %29
  %33 = load ptr, ptr %6, align 8
  %34 = load ptr, ptr %8, align 8
  %35 = getelementptr inbounds i8, ptr %34, i64 0
  %36 = load i8, ptr %35, align 1
  %37 = sext i8 %36 to i32
  %38 = load i64, ptr %7, align 8
  %39 = call ptr @memchr(ptr noundef %33, i32 noundef %37, i64 noundef %38) #7
  store ptr %39, ptr %5, align 8
  br label %107

40:                                               ; preds = %29
  %41 = load ptr, ptr %8, align 8
  %42 = getelementptr inbounds i8, ptr %41, i64 0
  %43 = load i8, ptr %42, align 1
  %44 = sext i8 %43 to i32
  %45 = load ptr, ptr %8, align 8
  %46 = getelementptr inbounds i8, ptr %45, i64 1
  %47 = load i8, ptr %46, align 1
  %48 = sext i8 %47 to i32
  %49 = icmp eq i32 %44, %48
  br i1 %49, label %50, label %51

50:                                               ; preds = %40
  store i64 2, ptr %11, align 8
  store i64 1, ptr %12, align 8
  br label %52

51:                                               ; preds = %40
  store i64 1, ptr %11, align 8
  store i64 2, ptr %12, align 8
  br label %52

52:                                               ; preds = %51, %50
  store i64 0, ptr %10, align 8
  br label %53

53:                                               ; preds = %105, %52
  %54 = load i64, ptr %10, align 8
  %55 = load i64, ptr %7, align 8
  %56 = load i64, ptr %9, align 8
  %57 = sub i64 %55, %56
  %58 = icmp ule i64 %54, %57
  br i1 %58, label %59, label %106

59:                                               ; preds = %53
  %60 = load ptr, ptr %8, align 8
  %61 = getelementptr inbounds i8, ptr %60, i64 1
  %62 = load i8, ptr %61, align 1
  %63 = sext i8 %62 to i32
  %64 = load ptr, ptr %6, align 8
  %65 = load i64, ptr %10, align 8
  %66 = add i64 %65, 1
  %67 = getelementptr inbounds i8, ptr %64, i64 %66
  %68 = load i8, ptr %67, align 1
  %69 = sext i8 %68 to i32
  %70 = icmp ne i32 %63, %69
  br i1 %70, label %71, label %75

71:                                               ; preds = %59
  %72 = load i64, ptr %11, align 8
  %73 = load i64, ptr %10, align 8
  %74 = add i64 %73, %72
  store i64 %74, ptr %10, align 8
  br label %105

75:                                               ; preds = %59
  %76 = load ptr, ptr %8, align 8
  %77 = getelementptr inbounds i8, ptr %76, i64 0
  %78 = load i8, ptr %77, align 1
  %79 = sext i8 %78 to i32
  %80 = load ptr, ptr %6, align 8
  %81 = load i64, ptr %10, align 8
  %82 = getelementptr inbounds i8, ptr %80, i64 %81
  %83 = load i8, ptr %82, align 1
  %84 = sext i8 %83 to i32
  %85 = icmp eq i32 %79, %84
  br i1 %85, label %86, label %101

86:                                               ; preds = %75
  %87 = load ptr, ptr %8, align 8
  %88 = getelementptr inbounds i8, ptr %87, i64 2
  %89 = load ptr, ptr %6, align 8
  %90 = load i64, ptr %10, align 8
  %91 = getelementptr inbounds i8, ptr %89, i64 %90
  %92 = getelementptr inbounds i8, ptr %91, i64 2
  %93 = load i64, ptr %9, align 8
  %94 = sub i64 %93, 2
  %95 = call i32 @memcmp(ptr noundef %88, ptr noundef %92, i64 noundef %94) #7
  %96 = icmp ne i32 %95, 0
  br i1 %96, label %101, label %97

97:                                               ; preds = %86
  %98 = load ptr, ptr %6, align 8
  %99 = load i64, ptr %10, align 8
  %100 = getelementptr inbounds i8, ptr %98, i64 %99
  store ptr %100, ptr %5, align 8
  br label %107

101:                                              ; preds = %86, %75
  %102 = load i64, ptr %12, align 8
  %103 = load i64, ptr %10, align 8
  %104 = add i64 %103, %102
  store i64 %104, ptr %10, align 8
  br label %105

105:                                              ; preds = %101, %71
  br label %53

106:                                              ; preds = %53
  store ptr null, ptr %5, align 8
  br label %107

107:                                              ; preds = %106, %97, %32, %27, %22
  %108 = load ptr, ptr %5, align 8
  ret ptr %108
}