; Function Attrs: nofree nounwind memory(argmem: read) uwtable
define ptr @cli_memstr(ptr noundef readonly %0, i64 noundef %1, ptr noundef readonly %2, i64 noundef %3) local_unnamed_addr #10 {
  %5 = add i64 %3, -1
  %.not48 = icmp ult i64 %5, %1
  br i1 %.not48, label %6, label %.loopexit

6:                                                ; preds = %4
  %7 = icmp eq ptr %2, %0
  br i1 %7, label %.loopexit, label %8

8:                                                ; preds = %6
  %9 = icmp eq i64 %3, 1
  %10 = load i8, ptr %2, align 1
  br i1 %9, label %11, label %14

11:                                               ; preds = %8
  %12 = sext i8 %10 to i32
  %13 = tail call ptr @memchr(ptr noundef %0, i32 noundef %12, i64 noundef %1) #26
  br label %.loopexit

14:                                               ; preds = %8
  %15 = getelementptr inbounds i8, ptr %2, i64 1
  %16 = load i8, ptr %15, align 1
  %17 = icmp eq i8 %10, %16
  %. = select i1 %17, i64 2, i64 1
  %.44 = select i1 %17, i64 1, i64 2
  %18 = getelementptr inbounds i8, ptr %2, i64 2
  %19 = sub i64 %1, %3
  %20 = add i64 %3, -2
  br label %21

21:                                               ; preds = %14, %30
  %.03449 = phi i64 [ 0, %14 ], [ %.1, %30 ]
  %22 = getelementptr i8, ptr %0, i64 %.03449
  %23 = getelementptr i8, ptr %22, i64 1
  %24 = load i8, ptr %23, align 1
  %.not41 = icmp eq i8 %16, %24
  br i1 %.not41, label %25, label %30

25:                                               ; preds = %21
  %26 = load i8, ptr %22, align 1
  %27 = icmp eq i8 %10, %26
  br i1 %27, label %28, label %30

28:                                               ; preds = %25
  %29 = getelementptr inbounds i8, ptr %22, i64 2
  %bcmp = tail call i32 @bcmp(ptr nonnull %18, ptr nonnull %29, i64 %20)
  %.not42 = icmp eq i32 %bcmp, 0
  br i1 %.not42, label %.loopexit, label %30

30:                                               ; preds = %25, %28, %21
  %.033.pn = phi i64 [ %., %21 ], [ %.44, %28 ], [ %.44, %25 ]
  %.1 = add i64 %.033.pn, %.03449
  %.not = icmp ugt i64 %.1, %19
  br i1 %.not, label %.loopexit, label %21

.loopexit:                                        ; preds = %30, %28, %6, %4, %11
  %.035 = phi ptr [ %13, %11 ], [ null, %4 ], [ %2, %6 ], [ null, %30 ], [ %22, %28 ]
  ret ptr %.035
}